target datalayout = "e-m:e-p270:32:32-p271:32:32-p272:64:64-i64:64-i128:128-f80:128-n8:16:32:64-S128"
target triple = "x86_64-pc-linux-gnu"

%struct.AVProbeData = type { ptr, ptr, i32, ptr }

@.str.119 = private unnamed_addr constant [7 x i8] c"*?[]{}\00", align 1
@.str.124 = private unnamed_addr constant [4 x i8] c"*?{\00", align 1
@.str.125 = private unnamed_addr constant [4 x i8] c"raw\00", align 1
@.str.126 = private unnamed_addr constant [4 x i8] c"gif\00", align 1

; Function Attrs: nounwind uwtable
define internal i32 @is_glob(ptr noundef %0) #0 {
  %2 = alloca ptr, align 8
  %3 = alloca i64, align 8
  %4 = alloca ptr, align 8
  store ptr %0, ptr %2, align 8, !tbaa !76
  call void @llvm.lifetime.start.p0(i64 8, ptr %3) #12
  store i64 0, ptr %3, align 8, !tbaa !106
  call void @llvm.lifetime.start.p0(i64 8, ptr %4) #12
  %5 = load ptr, ptr %2, align 8, !tbaa !76
  store ptr %5, ptr %4, align 8, !tbaa !76
  br label %6

6:                                                ; preds = %24, %16, %1
  %7 = load ptr, ptr %4, align 8, !tbaa !76
  %8 = call ptr @strchr(ptr noundef %7, i32 noundef 37) #13
  store ptr %8, ptr %4, align 8, !tbaa !76
  %9 = icmp ne ptr %8, null
  br i1 %9, label %10, label %25

10:                                               ; preds = %6
  %11 = load ptr, ptr %4, align 8, !tbaa !76
  %12 = getelementptr inbounds nuw i8, ptr %11, i32 1
  store ptr %12, ptr %4, align 8, !tbaa !76
  %13 = load i8, ptr %12, align 1, !tbaa !77
  %14 = sext i8 %13 to i32
  %15 = icmp eq i32 %14, 37
  br i1 %15, label %16, label %19

16:                                               ; preds = %10
  %17 = load ptr, ptr %4, align 8, !tbaa !76
  %18 = getelementptr inbounds nuw i8, ptr %17, i32 1
  store ptr %18, ptr %4, align 8, !tbaa !76
  br label %6, !llvm.loop !107

19:                                               ; preds = %10
  %20 = load ptr, ptr %4, align 8, !tbaa !76
  %21 = call i64 @strspn(ptr noundef %20, ptr noundef @.str.119) #13
  store i64 %21, ptr %3, align 8, !tbaa !106
  %22 = icmp ne i64 %21, 0
  br i1 %22, label %23, label %24

23:                                               ; preds = %19
  br label %25

24:                                               ; preds = %19
  br label %6, !llvm.loop !107

25:                                               ; preds = %23, %6
  %26 = load i64, ptr %3, align 8, !tbaa !106
  %27 = icmp ne i64 %26, 0
  %28 = zext i1 %27 to i32
  call void @llvm.lifetime.end.p0(i64 8, ptr %4) #12
  call void @llvm.lifetime.end.p0(i64 8, ptr %3) #12
  ret i32 %28
}

; Function Attrs: nounwind uwtable
define internal i32 @img_read_probe(ptr noundef %0) #0 {
  %2 = alloca i32, align 4
  %3 = alloca ptr, align 8
  store ptr %0, ptr %3, align 8, !tbaa !139
  %4 = load ptr, ptr %3, align 8, !tbaa !139
  %5 = getelementptr inbounds nuw %struct.AVProbeData, ptr %4, i32 0, i32 0
  %6 = load ptr, ptr %5, align 8, !tbaa !98
  %7 = icmp ne ptr %6, null
  br i1 %7, label %8, label %60

8:                                                ; preds = %1
  %9 = load ptr, ptr %3, align 8, !tbaa !139
  %10 = getelementptr inbounds nuw %struct.AVProbeData, ptr %9, i32 0, i32 0
  %11 = load ptr, ptr %10, align 8, !tbaa !98
  %12 = call i32 @ff_guess_image2_codec(ptr noundef %11)
  %13 = icmp ne i32 %12, 0
  br i1 %13, label %14, label %60

14:                                               ; preds = %8
  %15 = load ptr, ptr %3, align 8, !tbaa !139
  %16 = getelementptr inbounds nuw %struct.AVProbeData, ptr %15, i32 0, i32 0
  %17 = load ptr, ptr %16, align 8, !tbaa !98
  %18 = call i32 @av_filename_number_test(ptr noundef %17)
  %19 = icmp ne i32 %18, 0
  br i1 %19, label %20, label %21

20:                                               ; preds = %14
  store i32 100, ptr %2, align 4
  br label %61

21:                                               ; preds = %14
  %22 = load ptr, ptr %3, align 8, !tbaa !139
  %23 = getelementptr inbounds nuw %struct.AVProbeData, ptr %22, i32 0, i32 0
  %24 = load ptr, ptr %23, align 8, !tbaa !98
  %25 = call i32 @is_glob(ptr noundef %24)
  %26 = icmp ne i32 %25, 0
  br i1 %26, label %27, label %28

27:                                               ; preds = %21
  store i32 100, ptr %2, align 4
  br label %61

28:                                               ; preds = %21
  %29 = load ptr, ptr %3, align 8, !tbaa !139
  %30 = getelementptr inbounds nuw %struct.AVProbeData, ptr %29, i32 0, i32 0
  %31 = load ptr, ptr %30, align 8, !tbaa !98
  %32 = load ptr, ptr %3, align 8, !tbaa !139
  %33 = getelementptr inbounds nuw %struct.AVProbeData, ptr %32, i32 0, i32 0
  %34 = load ptr, ptr %33, align 8, !tbaa !98
  %35 = call i64 @strcspn(ptr noundef %34, ptr noundef @.str.124) #13
  %36 = getelementptr inbounds nuw i8, ptr %31, i64 %35
  %37 = load i8, ptr %36, align 1, !tbaa !77
  %38 = icmp ne i8 %37, 0
  br i1 %38, label %39, label %40

39:                                               ; preds = %28
  store i32 52, ptr %2, align 4
  br label %61

40:                                               ; preds = %28
  %41 = load ptr, ptr %3, align 8, !tbaa !139
  %42 = getelementptr inbounds nuw %struct.AVProbeData, ptr %41, i32 0, i32 2
  %43 = load i32, ptr %42, align 8, !tbaa !97
  %44 = icmp eq i32 %43, 0
  br i1 %44, label %45, label %46

45:                                               ; preds = %40
  store i32 0, ptr %2, align 4
  br label %61

46:                                               ; preds = %40
  %47 = load ptr, ptr %3, align 8, !tbaa !139
  %48 = getelementptr inbounds nuw %struct.AVProbeData, ptr %47, i32 0, i32 0
  %49 = load ptr, ptr %48, align 8, !tbaa !98
  %50 = call i32 @av_match_ext(ptr noundef %49, ptr noundef @.str.125)
  %51 = icmp ne i32 %50, 0
  br i1 %51, label %58, label %52

52:                                               ; preds = %46
  %53 = load ptr, ptr %3, align 8, !tbaa !139
  %54 = getelementptr inbounds nuw %struct.AVProbeData, ptr %53, i32 0, i32 0
  %55 = load ptr, ptr %54, align 8, !tbaa !98
  %56 = call i32 @av_match_ext(ptr noundef %55, ptr noundef @.str.126)
  %57 = icmp ne i32 %56, 0
  br i1 %57, label %58, label %59

58:                                               ; preds = %52, %46
  store i32 5, ptr %2, align 4
  br label %61

59:                                               ; preds = %52
  store i32 50, ptr %2, align 4
  br label %61

60:                                               ; preds = %8, %1
  store i32 0, ptr %2, align 4
  br label %61

61:                                               ; preds = %60, %59, %58, %45, %39, %27, %20
  %62 = load i32, ptr %2, align 4
  ret i32 %62
}