; Function Attrs: nounwind uwtable
define internal range(i32 0, 101) i32 @img_read_probe(ptr noundef readonly captures(none) %0) #0 {
  %2 = load ptr, ptr %0, align 8, !tbaa !92
  %.not = icmp eq ptr %2, null
  br i1 %.not, label %is_glob.exit, label %3

3:                                                ; preds = %1
  %4 = tail call i32 @ff_guess_image2_codec(ptr noundef nonnull %2) #14
  %.not10 = icmp eq i32 %4, 0
  br i1 %.not10, label %is_glob.exit, label %5

5:                                                ; preds = %3
  %6 = load ptr, ptr %0, align 8, !tbaa !92
  %7 = tail call i32 @av_filename_number_test(ptr noundef %6) #14
  %.not11 = icmp eq i32 %7, 0
  br i1 %.not11, label %8, label %is_glob.exit

8:                                                ; preds = %5
  %9 = load ptr, ptr %0, align 8, !tbaa !92
  %10 = tail call ptr @strchr(ptr noundef nonnull readonly dereferenceable(1) %9, i32 noundef 37) #15
  %.not10.not.i = icmp eq ptr %10, null
  br i1 %.not10.not.i, label %.loopexit, label %.lr.ph.i

.lr.ph.i:                                         ; preds = %8, %.backedge.i
  %11 = phi ptr [ %17, %.backedge.i ], [ %10, %8 ]
  %12 = getelementptr inbounds nuw i8, ptr %11, i64 1
  %13 = load i8, ptr %12, align 1, !tbaa !68
  %14 = icmp eq i8 %13, 37
  br i1 %14, label %15, label %18

15:                                               ; preds = %.lr.ph.i
  %16 = getelementptr inbounds nuw i8, ptr %11, i64 2
  br label %.backedge.i

.backedge.i:                                      ; preds = %18, %15
  %.0.be.i = phi ptr [ %16, %15 ], [ %12, %18 ]
  %17 = tail call ptr @strchr(ptr noundef nonnull dereferenceable(1) %.0.be.i, i32 noundef 37) #15
  %.not.not.i = icmp eq ptr %17, null
  br i1 %.not.not.i, label %.loopexit, label %.lr.ph.i, !llvm.loop !69

18:                                               ; preds = %.lr.ph.i
  %19 = tail call i64 @strspn(ptr noundef nonnull %12, ptr noundef nonnull @.str.119) #15
  %.not9.i = icmp eq i64 %19, 0
  br i1 %.not9.i, label %.backedge.i, label %is_glob.exit

.loopexit:                                        ; preds = %.backedge.i, %8
  %20 = tail call i64 @strcspn(ptr noundef nonnull %9, ptr noundef nonnull @.str.124) #15
  %21 = getelementptr inbounds nuw i8, ptr %9, i64 %20
  %22 = load i8, ptr %21, align 1, !tbaa !68
  %.not13 = icmp eq i8 %22, 0
  br i1 %.not13, label %23, label %is_glob.exit

23:                                               ; preds = %.loopexit
  %24 = getelementptr inbounds nuw i8, ptr %0, i64 16
  %25 = load i32, ptr %24, align 8, !tbaa !91
  %26 = icmp eq i32 %25, 0
  br i1 %26, label %is_glob.exit, label %27

27:                                               ; preds = %23
  %28 = tail call i32 @av_match_ext(ptr noundef nonnull %9, ptr noundef nonnull @.str.125) #14
  %.not14 = icmp eq i32 %28, 0
  br i1 %.not14, label %29, label %is_glob.exit

29:                                               ; preds = %27
  %30 = load ptr, ptr %0, align 8, !tbaa !92
  %31 = tail call i32 @av_match_ext(ptr noundef %30, ptr noundef nonnull @.str.126) #14
  %.not15 = icmp eq i32 %31, 0
  %spec.select = select i1 %.not15, i32 50, i32 5
  br label %is_glob.exit

is_glob.exit:                                     ; preds = %18, %29, %1, %3, %27, %23, %.loopexit, %5
  %.0 = phi i32 [ 100, %5 ], [ 52, %.loopexit ], [ 0, %23 ], [ 5, %27 ], [ 0, %3 ], [ 0, %1 ], [ %spec.select, %29 ], [ 100, %18 ]
  ret i32 %.0
}